
s_test：     文件格式 elf32-littleriscv


Disassembly of section .init:

00000000 <start>:
   0:	00500293          	li	t0,5
   4:	00400213          	li	tp,4
   8:	16520863          	beq	tp,t0,178 <fail>
   c:	00400213          	li	tp,4
  10:	16421463          	bne	tp,tp,178 <fail>
  14:	00400213          	li	tp,4
  18:	00120193          	addi	gp,tp,1 # 1 <start+0x1>
  1c:	00500313          	li	t1,5
  20:	14619c63          	bne	gp,t1,178 <fail>
  24:	00400213          	li	tp,4
  28:	fff22193          	slti	gp,tp,-1
  2c:	00000313          	li	t1,0
  30:	14619463          	bne	gp,t1,178 <fail>
  34:	00400213          	li	tp,4
  38:	00522193          	slti	gp,tp,5
  3c:	00100313          	li	t1,1
  40:	12619c63          	bne	gp,t1,178 <fail>
  44:	00400213          	li	tp,4
  48:	00122193          	slti	gp,tp,1
  4c:	00000313          	li	t1,0
  50:	12619463          	bne	gp,t1,178 <fail>
  54:	00400213          	li	tp,4
  58:	00522193          	slti	gp,tp,5
  5c:	00100313          	li	t1,1
  60:	10619c63          	bne	gp,t1,178 <fail>
  64:	00400213          	li	tp,4
  68:	00124193          	xori	gp,tp,1
  6c:	00500313          	li	t1,5
  70:	10619463          	bne	gp,t1,178 <fail>
  74:	00400213          	li	tp,4
  78:	00524193          	xori	gp,tp,5
  7c:	00100313          	li	t1,1
  80:	0e619c63          	bne	gp,t1,178 <fail>
  84:	00400213          	li	tp,4
  88:	00126193          	ori	gp,tp,1
  8c:	00500313          	li	t1,5
  90:	0e619463          	bne	gp,t1,178 <fail>
  94:	00400213          	li	tp,4
  98:	00526193          	ori	gp,tp,5
  9c:	00500313          	li	t1,5
  a0:	00618463          	beq	gp,t1,a8 <start+0xa8>
  a4:	f5dff06f          	j	0 <start>
  a8:	00400213          	li	tp,4
  ac:	00127193          	andi	gp,tp,1
  b0:	00000313          	li	t1,0
  b4:	0c619263          	bne	gp,t1,178 <fail>
  b8:	00400213          	li	tp,4
  bc:	00527193          	andi	gp,tp,5
  c0:	00400313          	li	t1,4
  c4:	0a619a63          	bne	gp,t1,178 <fail>
  c8:	00400213          	li	tp,4
  cc:	00121193          	slli	gp,tp,0x1
  d0:	00800313          	li	t1,8
  d4:	0a619263          	bne	gp,t1,178 <fail>
  d8:	00400213          	li	tp,4
  dc:	00221193          	slli	gp,tp,0x2
  e0:	01000313          	li	t1,16
  e4:	08619a63          	bne	gp,t1,178 <fail>
  e8:	00400213          	li	tp,4
  ec:	00125193          	srli	gp,tp,0x1
  f0:	00200313          	li	t1,2
  f4:	08619263          	bne	gp,t1,178 <fail>
  f8:	00400213          	li	tp,4
  fc:	00225193          	srli	gp,tp,0x2
 100:	00100313          	li	t1,1
 104:	06619a63          	bne	gp,t1,178 <fail>
 108:	00400213          	li	tp,4
 10c:	40125193          	srai	gp,tp,0x1
 110:	00200313          	li	t1,2
 114:	06619263          	bne	gp,t1,178 <fail>
 118:	001101b3          	add	gp,sp,ra
 11c:	401101b3          	sub	gp,sp,ra
 120:	001111b3          	sll	gp,sp,ra
 124:	005121b3          	slt	gp,sp,t0
 128:	0022b1b3          	sltu	gp,t0,sp
 12c:	0022c1b3          	xor	gp,t0,sp
 130:	4022d1b3          	sra	gp,t0,sp
 134:	005151b3          	srl	gp,sp,t0
 138:	005161b3          	or	gp,sp,t0
 13c:	005171b3          	and	gp,sp,t0
 140:	fff00213          	li	tp,-1
 144:	fff00293          	li	t0,-1
 148:	025201b3          	mul	gp,tp,t0
 14c:	fff00213          	li	tp,-1
 150:	fff00293          	li	t0,-1
 154:	025231b3          	mulhu	gp,tp,t0
 158:	fff00213          	li	tp,-1
 15c:	fff00293          	li	t0,-1
 160:	025211b3          	mulh	gp,tp,t0
 164:	fff00213          	li	tp,-1
 168:	fff00293          	li	t0,-1
 16c:	025221b3          	mulhsu	gp,tp,t0

00000170 <pass>:
 170:	00100d13          	li	s10,1
 174:	0080006f          	j	17c <run_end>

00000178 <fail>:
 178:	00100d93          	li	s11,1

Disassembly of section .stack:

10002000 <sp_top-0x2000>:
	...

Disassembly of section .riscv.attributes:

00000000 <.riscv.attributes>:
   0:	1e41                	addi	t3,t3,-16
   2:	0000                	unimp
   4:	7200                	flw	fs0,32(a2)
   6:	7369                	lui	t1,0xffffa
   8:	01007663          	bgeu	zero,a6,14 <start+0x14>
   c:	0014                	0x14
   e:	0000                	unimp
  10:	7205                	lui	tp,0xfffe1
  12:	3376                	fld	ft6,376(sp)
  14:	6932                	flw	fs2,12(sp)
  16:	7032                	flw	ft0,44(sp)
  18:	5f30                	lw	a2,120(a4)
  1a:	326d                	jal	fffff9c4 <sp_top+0xefffb9c4>
  1c:	3070                	fld	fa2,224(s0)
	...
